target datalayout = "e-m:e-p270:32:32-p271:32:32-p272:64:64-i64:64-i128:128-f80:128-n8:16:32:64-S128"
target triple = "x86_64-pc-linux-gnu"

@mi_segment_map = internal global [5121 x i64] zeroinitializer, align 16

; Function Attrs: nounwind uwtable
define internal i64 @mi_segment_map_index_of(ptr noundef %0, ptr noundef %1) #5 {
  %3 = alloca i64, align 8
  %4 = alloca ptr, align 8
  %5 = alloca ptr, align 8
  %6 = alloca i64, align 8
  %7 = alloca i64, align 8
  store ptr %0, ptr %4, align 8, !tbaa !41
  store ptr %1, ptr %5, align 8, !tbaa !12
  %8 = load ptr, ptr %4, align 8, !tbaa !41
  %9 = ptrtoint ptr %8 to i64
  %10 = icmp uge i64 %9, 21990232555520
  br i1 %10, label %11, label %13

11:                                               ; preds = %2
  %12 = load ptr, ptr %5, align 8, !tbaa !12
  store i64 0, ptr %12, align 8, !tbaa !3
  store i64 5120, ptr %3, align 8
  br label %23

13:                                               ; preds = %2
  call void @llvm.lifetime.start.p0(i64 8, ptr %6) #8
  %14 = load ptr, ptr %4, align 8, !tbaa !41
  %15 = ptrtoint ptr %14 to i64
  %16 = udiv i64 %15, 67108864
  store i64 %16, ptr %6, align 8, !tbaa !3
  %17 = load i64, ptr %6, align 8, !tbaa !3
  %18 = urem i64 %17, 64
  %19 = load ptr, ptr %5, align 8, !tbaa !12
  store i64 %18, ptr %19, align 8, !tbaa !3
  call void @llvm.lifetime.start.p0(i64 8, ptr %7) #8
  %20 = load i64, ptr %6, align 8, !tbaa !3
  %21 = udiv i64 %20, 64
  store i64 %21, ptr %7, align 8, !tbaa !3
  %22 = load i64, ptr %7, align 8, !tbaa !3
  store i64 %22, ptr %3, align 8
  call void @llvm.lifetime.end.p0(i64 8, ptr %7) #8
  call void @llvm.lifetime.end.p0(i64 8, ptr %6) #8
  br label %23

23:                                               ; preds = %13, %11
  %24 = load i64, ptr %3, align 8
  ret i64 %24
}

; Function Attrs: nounwind uwtable
define hidden void @_mi_segment_map_allocated_at(ptr noundef %0) #5 {
  %2 = alloca ptr, align 8
  %3 = alloca i64, align 8
  %4 = alloca i64, align 8
  %5 = alloca i32, align 4
  %6 = alloca i64, align 8
  %7 = alloca i64, align 8
  %8 = alloca i64, align 8
  %9 = alloca i64, align 8
  %10 = alloca i8, align 1
  store ptr %0, ptr %2, align 8, !tbaa !41
  call void @llvm.lifetime.start.p0(i64 8, ptr %3) #8
  call void @llvm.lifetime.start.p0(i64 8, ptr %4) #8
  %11 = load ptr, ptr %2, align 8, !tbaa !41
  %12 = call i64 @mi_segment_map_index_of(ptr noundef %11, ptr noundef %3)
  store i64 %12, ptr %4, align 8, !tbaa !3
  %13 = load i64, ptr %4, align 8, !tbaa !3
  %14 = icmp eq i64 %13, 5120
  br i1 %14, label %15, label %16

15:                                               ; preds = %1
  store i32 1, ptr %5, align 4
  br label %42

16:                                               ; preds = %1
  call void @llvm.lifetime.start.p0(i64 8, ptr %6) #8
  %17 = load i64, ptr %4, align 8, !tbaa !3
  %18 = getelementptr inbounds nuw [5121 x i64], ptr @mi_segment_map, i64 0, i64 %17
  %19 = load atomic i64, ptr %18 monotonic, align 8
  store i64 %19, ptr %7, align 8
  %20 = load i64, ptr %7, align 8, !tbaa !3
  store i64 %20, ptr %6, align 8, !tbaa !3
  call void @llvm.lifetime.start.p0(i64 8, ptr %8) #8
  br label %21

21:                                               ; preds = %36, %16
  %22 = load i64, ptr %6, align 8, !tbaa !3
  %23 = load i64, ptr %3, align 8, !tbaa !3
  %24 = shl i64 1, %23
  %25 = or i64 %22, %24
  store i64 %25, ptr %8, align 8, !tbaa !3
  br label %26

26:                                               ; preds = %21
  %27 = load i64, ptr %4, align 8, !tbaa !3
  %28 = getelementptr inbounds nuw [5121 x i64], ptr @mi_segment_map, i64 0, i64 %27
  %29 = load i64, ptr %8, align 8, !tbaa !3
  store i64 %29, ptr %9, align 8, !tbaa !3
  %30 = load i64, ptr %6, align 8
  %31 = load i64, ptr %9, align 8
  %32 = cmpxchg weak ptr %28, i64 %30, i64 %31 release monotonic, align 8
  %33 = extractvalue { i64, i1 } %32, 0
  %34 = extractvalue { i64, i1 } %32, 1
  br i1 %34, label %36, label %35

35:                                               ; preds = %26
  store i64 %33, ptr %6, align 8
  br label %36

36:                                               ; preds = %35, %26
  %37 = zext i1 %34 to i8
  store i8 %37, ptr %10, align 1, !tbaa !18
  %38 = load i8, ptr %10, align 1, !tbaa !18, !range !20, !noundef !21
  %39 = trunc i8 %38 to i1
  %40 = xor i1 %39, true
  br i1 %40, label %21, label %41, !llvm.loop !43

41:                                               ; preds = %36
  call void @llvm.lifetime.end.p0(i64 8, ptr %8) #8
  call void @llvm.lifetime.end.p0(i64 8, ptr %6) #8
  store i32 0, ptr %5, align 4
  br label %42

42:                                               ; preds = %41, %15
  call void @llvm.lifetime.end.p0(i64 8, ptr %4) #8
  call void @llvm.lifetime.end.p0(i64 8, ptr %3) #8
  %43 = load i32, ptr %5, align 4
  switch i32 %43, label %45 [
    i32 0, label %44
    i32 1, label %44
  ]

44:                                               ; preds = %42, %42
  ret void

45:                                               ; preds = %42
  unreachable
}